; ModuleID = '51/304.c'
source_filename = "51/304.c"
target datalayout = "e-m:e-p270:32:32-p271:32:32-p272:64:64-i64:64-f80:128-n8:16:32:64-S128"
target triple = "x86_64-pc-linux-gnu"

@.str = private unnamed_addr constant [3 x i8] c"%d\00", align 1
@.str.1 = private unnamed_addr constant [3 x i8] c"%s\00", align 1
@.str.2 = private unnamed_addr constant [4 x i8] c"%d\0A\00", align 1
@.str.3 = private unnamed_addr constant [4 x i8] c"%s\0A\00", align 1
@.str.4 = private unnamed_addr constant [3 x i8] c"NO\00", align 1

; Function Attrs: noinline nounwind uwtable
define dso_local i32 @main() #0 {
  %1 = alloca i32, align 4
  %2 = alloca i32, align 4
  %3 = alloca i32, align 4
  %4 = alloca i32, align 4
  %5 = alloca i32, align 4
  %6 = alloca i32, align 4
  %7 = alloca [100 x i32], align 16
  %8 = alloca i32, align 4
  %9 = alloca i32, align 4
  %10 = alloca [100 x i8], align 16
  %11 = alloca [99 x [5 x i8]], align 16
  store i32 0, i32* %1, align 4
  %12 = bitcast [100 x i32]* %7 to i8*
  call void @llvm.memset.p0i8.i64(i8* align 16 %12, i8 0, i64 400, i1 false)
  %13 = bitcast [99 x [5 x i8]]* %11 to i8*
  call void @llvm.memset.p0i8.i64(i8* align 16 %13, i8 0, i64 495, i1 false)
  %14 = call i32 (i8*, ...) @__isoc99_scanf(i8* getelementptr inbounds ([3 x i8], [3 x i8]* @.str, i64 0, i64 0), i32* %3)
  %15 = getelementptr inbounds [100 x i8], [100 x i8]* %10, i64 0, i64 0
  %16 = call i32 (i8*, ...) @__isoc99_scanf(i8* getelementptr inbounds ([3 x i8], [3 x i8]* @.str.1, i64 0, i64 0), i8* %15)
  %17 = getelementptr inbounds [100 x i8], [100 x i8]* %10, i64 0, i64 0
  %18 = call i64 @strlen(i8* %17) #4
  %19 = trunc i64 %18 to i32
  store i32 %19, i32* %2, align 4
  store i32 0, i32* %4, align 4
  br label %20

20:                                               ; preds = %51, %0
  %21 = load i32, i32* %4, align 4
  %22 = load i32, i32* %2, align 4
  %23 = load i32, i32* %3, align 4
  %24 = sub nsw i32 %22, %23
  %25 = icmp sle i32 %21, %24
  br i1 %25, label %26, label %54

26:                                               ; preds = %20
  %27 = load i32, i32* %4, align 4
  store i32 %27, i32* %5, align 4
  br label %28

28:                                               ; preds = %47, %26
  %29 = load i32, i32* %5, align 4
  %30 = load i32, i32* %4, align 4
  %31 = load i32, i32* %3, align 4
  %32 = add nsw i32 %30, %31
  %33 = icmp slt i32 %29, %32
  br i1 %33, label %34, label %50

34:                                               ; preds = %28
  %35 = load i32, i32* %5, align 4
  %36 = sext i32 %35 to i64
  %37 = getelementptr inbounds [100 x i8], [100 x i8]* %10, i64 0, i64 %36
  %38 = load i8, i8* %37, align 1
  %39 = load i32, i32* %4, align 4
  %40 = sext i32 %39 to i64
  %41 = getelementptr inbounds [99 x [5 x i8]], [99 x [5 x i8]]* %11, i64 0, i64 %40
  %42 = load i32, i32* %5, align 4
  %43 = load i32, i32* %4, align 4
  %44 = sub nsw i32 %42, %43
  %45 = sext i32 %44 to i64
  %46 = getelementptr inbounds [5 x i8], [5 x i8]* %41, i64 0, i64 %45
  store i8 %38, i8* %46, align 1
  br label %47

47:                                               ; preds = %34
  %48 = load i32, i32* %5, align 4
  %49 = add nsw i32 %48, 1
  store i32 %49, i32* %5, align 4
  br label %28

50:                                               ; preds = %28
  br label %51

51:                                               ; preds = %50
  %52 = load i32, i32* %4, align 4
  %53 = add nsw i32 %52, 1
  store i32 %53, i32* %4, align 4
  br label %20

54:                                               ; preds = %20
  store i32 0, i32* %6, align 4
  br label %55

55:                                               ; preds = %90, %54
  %56 = load i32, i32* %6, align 4
  %57 = load i32, i32* %2, align 4
  %58 = load i32, i32* %3, align 4
  %59 = sub nsw i32 %57, %58
  %60 = icmp sle i32 %56, %59
  br i1 %60, label %61, label %93

61:                                               ; preds = %55
  store i32 0, i32* %4, align 4
  br label %62

62:                                               ; preds = %86, %61
  %63 = load i32, i32* %4, align 4
  %64 = load i32, i32* %2, align 4
  %65 = load i32, i32* %3, align 4
  %66 = sub nsw i32 %64, %65
  %67 = icmp sle i32 %63, %66
  br i1 %67, label %68, label %89

68:                                               ; preds = %62
  %69 = load i32, i32* %6, align 4
  %70 = sext i32 %69 to i64
  %71 = getelementptr inbounds [99 x [5 x i8]], [99 x [5 x i8]]* %11, i64 0, i64 %70
  %72 = getelementptr inbounds [5 x i8], [5 x i8]* %71, i64 0, i64 0
  %73 = load i32, i32* %4, align 4
  %74 = sext i32 %73 to i64
  %75 = getelementptr inbounds [99 x [5 x i8]], [99 x [5 x i8]]* %11, i64 0, i64 %74
  %76 = getelementptr inbounds [5 x i8], [5 x i8]* %75, i64 0, i64 0
  %77 = call i32 @strcmp(i8* %72, i8* %76) #4
  %78 = icmp eq i32 %77, 0
  br i1 %78, label %79, label %85

79:                                               ; preds = %68
  %80 = load i32, i32* %6, align 4
  %81 = sext i32 %80 to i64
  %82 = getelementptr inbounds [100 x i32], [100 x i32]* %7, i64 0, i64 %81
  %83 = load i32, i32* %82, align 4
  %84 = add nsw i32 %83, 1
  store i32 %84, i32* %82, align 4
  br label %85

85:                                               ; preds = %79, %68
  br label %86

86:                                               ; preds = %85
  %87 = load i32, i32* %4, align 4
  %88 = add nsw i32 %87, 1
  store i32 %88, i32* %4, align 4
  br label %62

89:                                               ; preds = %62
  br label %90

90:                                               ; preds = %89
  %91 = load i32, i32* %6, align 4
  %92 = add nsw i32 %91, 1
  store i32 %92, i32* %6, align 4
  br label %55

93:                                               ; preds = %55
  %94 = getelementptr inbounds [100 x i32], [100 x i32]* %7, i64 0, i64 0
  %95 = load i32, i32* %94, align 16
  store i32 %95, i32* %8, align 4
  store i32 0, i32* %6, align 4
  br label %96

96:                                               ; preds = %115, %93
  %97 = load i32, i32* %6, align 4
  %98 = load i32, i32* %2, align 4
  %99 = load i32, i32* %3, align 4
  %100 = sub nsw i32 %98, %99
  %101 = icmp sle i32 %97, %100
  br i1 %101, label %102, label %118

102:                                              ; preds = %96
  %103 = load i32, i32* %6, align 4
  %104 = sext i32 %103 to i64
  %105 = getelementptr inbounds [100 x i32], [100 x i32]* %7, i64 0, i64 %104
  %106 = load i32, i32* %105, align 4
  %107 = load i32, i32* %8, align 4
  %108 = icmp sgt i32 %106, %107
  br i1 %108, label %109, label %114

109:                                              ; preds = %102
  %110 = load i32, i32* %6, align 4
  %111 = sext i32 %110 to i64
  %112 = getelementptr inbounds [100 x i32], [100 x i32]* %7, i64 0, i64 %111
  %113 = load i32, i32* %112, align 4
  store i32 %113, i32* %8, align 4
  br label %114

114:                                              ; preds = %109, %102
  br label %115

115:                                              ; preds = %114
  %116 = load i32, i32* %6, align 4
  %117 = add nsw i32 %116, 1
  store i32 %117, i32* %6, align 4
  br label %96

118:                                              ; preds = %96
  %119 = load i32, i32* %8, align 4
  %120 = icmp sgt i32 %119, 1
  br i1 %120, label %121, label %173

121:                                              ; preds = %118
  %122 = load i32, i32* %8, align 4
  %123 = call i32 (i8*, ...) @printf(i8* getelementptr inbounds ([4 x i8], [4 x i8]* @.str.2, i64 0, i64 0), i32 %122)
  store i32 0, i32* %6, align 4
  br label %124

124:                                              ; preds = %169, %121
  %125 = load i32, i32* %6, align 4
  %126 = load i32, i32* %2, align 4
  %127 = load i32, i32* %3, align 4
  %128 = sub nsw i32 %126, %127
  %129 = icmp sle i32 %125, %128
  br i1 %129, label %130, label %172

130:                                              ; preds = %124
  store i32 1, i32* %9, align 4
  %131 = load i32, i32* %6, align 4
  %132 = sext i32 %131 to i64
  %133 = getelementptr inbounds [100 x i32], [100 x i32]* %7, i64 0, i64 %132
  %134 = load i32, i32* %133, align 4
  %135 = load i32, i32* %8, align 4
  %136 = icmp eq i32 %134, %135
  br i1 %136, label %137, label %168

137:                                              ; preds = %130
  store i32 0, i32* %4, align 4
  br label %138

138:                                              ; preds = %155, %137
  %139 = load i32, i32* %4, align 4
  %140 = load i32, i32* %6, align 4
  %141 = icmp slt i32 %139, %140
  br i1 %141, label %142, label %158

142:                                              ; preds = %138
  %143 = load i32, i32* %6, align 4
  %144 = sext i32 %143 to i64
  %145 = getelementptr inbounds [99 x [5 x i8]], [99 x [5 x i8]]* %11, i64 0, i64 %144
  %146 = getelementptr inbounds [5 x i8], [5 x i8]* %145, i64 0, i64 0
  %147 = load i32, i32* %4, align 4
  %148 = sext i32 %147 to i64
  %149 = getelementptr inbounds [99 x [5 x i8]], [99 x [5 x i8]]* %11, i64 0, i64 %148
  %150 = getelementptr inbounds [5 x i8], [5 x i8]* %149, i64 0, i64 0
  %151 = call i32 @strcmp(i8* %146, i8* %150) #4
  %152 = icmp eq i32 %151, 0
  br i1 %152, label %153, label %154

153:                                              ; preds = %142
  store i32 0, i32* %9, align 4
  br label %158

154:                                              ; preds = %142
  br label %155

155:                                              ; preds = %154
  %156 = load i32, i32* %4, align 4
  %157 = add nsw i32 %156, 1
  store i32 %157, i32* %4, align 4
  br label %138

158:                                              ; preds = %153, %138
  %159 = load i32, i32* %9, align 4
  %160 = icmp eq i32 %159, 1
  br i1 %160, label %161, label %167

161:                                              ; preds = %158
  %162 = load i32, i32* %6, align 4
  %163 = sext i32 %162 to i64
  %164 = getelementptr inbounds [99 x [5 x i8]], [99 x [5 x i8]]* %11, i64 0, i64 %163
  %165 = getelementptr inbounds [5 x i8], [5 x i8]* %164, i64 0, i64 0
  %166 = call i32 (i8*, ...) @printf(i8* getelementptr inbounds ([4 x i8], [4 x i8]* @.str.3, i64 0, i64 0), i8* %165)
  br label %167

167:                                              ; preds = %161, %158
  br label %168

168:                                              ; preds = %167, %130
  br label %169

169:                                              ; preds = %168
  %170 = load i32, i32* %6, align 4
  %171 = add nsw i32 %170, 1
  store i32 %171, i32* %6, align 4
  br label %124

172:                                              ; preds = %124
  br label %175

173:                                              ; preds = %118
  %174 = call i32 (i8*, ...) @printf(i8* getelementptr inbounds ([3 x i8], [3 x i8]* @.str.4, i64 0, i64 0))
  br label %175

175:                                              ; preds = %173, %172
  ret i32 0
}

; Function Attrs: argmemonly nounwind willreturn
declare void @llvm.memset.p0i8.i64(i8* nocapture writeonly, i8, i64, i1 immarg) #1

declare dso_local i32 @__isoc99_scanf(i8*, ...) #2

; Function Attrs: nounwind readonly
declare dso_local i64 @strlen(i8*) #3

; Function Attrs: nounwind readonly
declare dso_local i32 @strcmp(i8*, i8*) #3

declare dso_local i32 @printf(i8*, ...) #2


!llvm.module.flags = !{!0}
!llvm.ident = !{!1}

!0 = !{i32 1, !"wchar_size", i32 4}
!1 = !{!"clang version 10.0.0-4ubuntu1 "}
